ccopy_reg
_reconstructor
p0
(csklearn.pipeline
Pipeline
p1
c__builtin__
object
p2
Ntp3
Rp4
(dp5
S'_sklearn_version'
p6
S'0.18.1'
p7
sS'steps'
p8
(lp9
(S'scaler'
p10
g0
(csklearn.preprocessing.data
MinMaxScaler
p11
g2
Ntp12
Rp13
(dp14
S'copy'
p15
I01
sg6
g7
sS'feature_range'
p16
(I0
I1
tp17
sbtp18
a(S'reduce_dim'
p19
g0
(csklearn.decomposition.pca
PCA
p20
g2
Ntp21
Rp22
(dp23
S'svd_solver'
p24
S'auto'
p25
sS'iterated_power'
p26
g25
sS'random_state'
p27
Nsg6
g7
sS'whiten'
p28
I01
sS'tol'
p29
F0.0
sg15
I01
sS'n_components'
p30
I6
sbtp31
a(S'clf'
p32
g0
(csklearn.naive_bayes
GaussianNB
p33
g2
Ntp34
Rp35
(dp36
S'priors'
p37
Nsg6
g7
sbtp38
asb.